target datalayout = "e-m:e-p270:32:32-p271:32:32-p272:64:64-i64:64-i128:128-f80:128-n8:16:32:64-S128"
target triple = "x86_64-pc-linux-gnu"

@tns_desegment = internal global i8 1, align 1

; Function Attrs: null_pointer_is_valid sspstrong uwtable
define internal i32 @dissect_tns(ptr noundef %0, ptr noundef %1, ptr noundef %2, ptr noundef %3) #0 {
  %5 = alloca i32, align 4
  %6 = alloca ptr, align 8
  %7 = alloca ptr, align 8
  %8 = alloca ptr, align 8
  %9 = alloca ptr, align 8
  %10 = alloca i32, align 4
  %11 = alloca i16, align 2
  %12 = alloca i8, align 1
  %13 = alloca i32, align 4
  store ptr %0, ptr %6, align 8
  store ptr %1, ptr %7, align 8
  store ptr %2, ptr %8, align 8
  store ptr %3, ptr %9, align 8
  call void @llvm.lifetime.start.p0(i64 4, ptr %10) #7
  call void @llvm.lifetime.start.p0(i64 2, ptr %11) #7
  call void @llvm.lifetime.start.p0(i64 1, ptr %12) #7
  %14 = load ptr, ptr %6, align 8
  %15 = call zeroext i1 @tvb_bytes_exist(ptr noundef %14, i32 noundef 4, i32 noundef 1)
  br i1 %15, label %16, label %28

16:                                               ; preds = %4
  %17 = load ptr, ptr %6, align 8
  %18 = call zeroext i8 @tvb_get_uint8(ptr noundef %17, i32 noundef 4)
  store i8 %18, ptr %12, align 1
  %19 = load i8, ptr %12, align 1
  %20 = zext i8 %19 to i32
  %21 = icmp slt i32 %20, 1
  br i1 %21, label %26, label %22

22:                                               ; preds = %16
  %23 = load i8, ptr %12, align 1
  %24 = zext i8 %23 to i32
  %25 = icmp sgt i32 %24, 19
  br i1 %25, label %26, label %27

26:                                               ; preds = %22, %16
  store i32 0, ptr %5, align 4
  store i32 1, ptr %13, align 4
  br label %52

27:                                               ; preds = %22
  br label %28

28:                                               ; preds = %27, %4
  %29 = load ptr, ptr %6, align 8
  %30 = call zeroext i16 @tvb_get_ntohs(ptr noundef %29, i32 noundef 2)
  store i16 %30, ptr %11, align 2
  %31 = load i16, ptr %11, align 2
  %32 = zext i16 %31 to i32
  %33 = icmp eq i32 %32, 0
  br i1 %33, label %38, label %34

34:                                               ; preds = %28
  %35 = load i16, ptr %11, align 2
  %36 = zext i16 %35 to i32
  %37 = icmp eq i32 %36, 4
  br label %38

38:                                               ; preds = %34, %28
  %39 = phi i1 [ true, %28 ], [ %37, %34 ]
  %40 = select i1 %39, i32 2, i32 4
  store i32 %40, ptr %10, align 4
  %41 = load ptr, ptr %6, align 8
  %42 = load ptr, ptr %7, align 8
  %43 = load ptr, ptr %8, align 8
  %44 = load i8, ptr @tns_desegment, align 1, !range !6, !noundef !7
  %45 = trunc i8 %44 to i1
  %46 = load i32, ptr %10, align 4
  %47 = icmp eq i32 %46, 2
  %48 = select i1 %47, ptr @get_tns_pdu_len, ptr @get_tns_pdu_len_nochksum
  %49 = load ptr, ptr %9, align 8
  call void @tcp_dissect_pdus(ptr noundef %41, ptr noundef %42, ptr noundef %43, i1 noundef zeroext %45, i32 noundef 8, ptr noundef %48, ptr noundef @dissect_tns_pdu, ptr noundef %49)
  %50 = load ptr, ptr %6, align 8
  %51 = call i32 @tvb_captured_length(ptr noundef %50)
  store i32 %51, ptr %5, align 4
  store i32 1, ptr %13, align 4
  br label %52

52:                                               ; preds = %38, %26
  call void @llvm.lifetime.end.p0(i64 1, ptr %12) #7
  call void @llvm.lifetime.end.p0(i64 2, ptr %11) #7
  call void @llvm.lifetime.end.p0(i64 4, ptr %10) #7
  %53 = load i32, ptr %5, align 4
  ret i32 %53
}