; Function Attrs: null_pointer_is_valid sspstrong uwtable
define internal i32 @dissect_tns(ptr noundef %0, ptr noundef %1, ptr noundef %2, ptr noundef %3) #0 {
  %5 = tail call zeroext i1 @tvb_bytes_exist(ptr noundef %0, i32 noundef 4, i32 noundef 1)
  br i1 %5, label %6, label %9

6:                                                ; preds = %4
  %7 = tail call zeroext i8 @tvb_get_uint8(ptr noundef %0, i32 noundef 4)
  %8 = add i8 %7, -20
  %or.cond = icmp ult i8 %8, -19
  br i1 %or.cond, label %17, label %9

9:                                                ; preds = %6, %4
  %10 = tail call zeroext i16 @tvb_get_ntohs(ptr noundef %0, i32 noundef 2)
  %11 = and i16 %10, -5
  %12 = icmp eq i16 %11, 0
  %13 = load i8, ptr @tns_desegment, align 1, !range !6, !noundef !7
  %14 = trunc nuw i8 %13 to i1
  %15 = select i1 %12, ptr @get_tns_pdu_len, ptr @get_tns_pdu_len_nochksum
  tail call void @tcp_dissect_pdus(ptr noundef %0, ptr noundef %1, ptr noundef %2, i1 noundef zeroext %14, i32 noundef 8, ptr noundef nonnull %15, ptr noundef nonnull @dissect_tns_pdu, ptr noundef %3)
  %16 = tail call i32 @tvb_captured_length(ptr noundef %0)
  br label %17

17:                                               ; preds = %6, %9
  %.0 = phi i32 [ %16, %9 ], [ 0, %6 ]
  ret i32 %.0
}